; Function Attrs: mustprogress nofree norecurse nosync nounwind willreturn memory(argmem: readwrite) uwtable
define internal noundef range(i32 0, 3) i32 @_ZL44fake_zero_copy_grpc_protector_max_frame_sizeP28tsi_zero_copy_grpc_protectorPm(ptr noundef readonly %0, ptr noundef writeonly %1) #15 {
  %3 = icmp eq ptr %0, null
  %4 = icmp eq ptr %1, null
  %or.cond = or i1 %3, %4
  br i1 %or.cond, label %8, label %5

5:                                                ; preds = %2
  %6 = getelementptr inbounds nuw i8, ptr %0, i64 472
  %7 = load i64, ptr %6, align 8, !tbaa !46
  store i64 %7, ptr %1, align 8, !tbaa !40
  br label %8

8:                                                ; preds = %2, %5
  %.0 = phi i32 [ 0, %5 ], [ 2, %2 ]
  ret i32 %.0
}